; ModuleID = 'source-C-CXX/49/2699.c'
source_filename = "source-C-CXX/49/2699.c"
target datalayout = "e-m:e-p270:32:32-p271:32:32-p272:64:64-i64:64-f80:128-n8:16:32:64-S128"
target triple = "x86_64-pc-linux-gnu"

@.str = private unnamed_addr constant [3 x i8] c"%d\00", align 1
@.str.1 = private unnamed_addr constant [4 x i8] c"%d\0A\00", align 1

; Function Attrs: nofree nounwind sspstrong uwtable
define dso_local i32 @main() local_unnamed_addr #0 {
  %1 = alloca i32, align 4
  %2 = bitcast i32* %1 to i8*
  call void @llvm.lifetime.start.p0i8(i64 4, i8* nonnull %2) #3
  %3 = call i32 (i8*, ...) @__isoc99_scanf(i8* getelementptr inbounds ([3 x i8], [3 x i8]* @.str, i64 0, i64 0), i32* nonnull %1)
  %4 = load i32, i32* %1, align 4, !tbaa !5
  %5 = add nsw i32 %4, 12
  %6 = srem i32 %5, 7
  %7 = icmp eq i32 %6, 5
  br i1 %7, label %8, label %11

8:                                                ; preds = %0
  %9 = call i32 (i8*, ...) @printf(i8* nonnull dereferenceable(1) getelementptr inbounds ([4 x i8], [4 x i8]* @.str.1, i64 0, i64 0), i32 1)
  %10 = load i32, i32* %1, align 4, !tbaa !5
  br label %11

11:                                               ; preds = %0, %8
  %12 = phi i32 [ %4, %0 ], [ %10, %8 ]
  %13 = add nsw i32 %12, 43
  %14 = srem i32 %13, 7
  %15 = icmp eq i32 %14, 5
  br i1 %15, label %19, label %22

16:                                               ; preds = %94
  %17 = call i32 (i8*, ...) @printf(i8* nonnull dereferenceable(1) getelementptr inbounds ([3 x i8], [3 x i8]* @.str, i64 0, i64 0), i32 12)
  br label %18

18:                                               ; preds = %16, %94
  call void @llvm.lifetime.end.p0i8(i64 4, i8* nonnull %2) #3
  ret i32 0

19:                                               ; preds = %11
  %20 = call i32 (i8*, ...) @printf(i8* nonnull dereferenceable(1) getelementptr inbounds ([4 x i8], [4 x i8]* @.str.1, i64 0, i64 0), i32 2)
  %21 = load i32, i32* %1, align 4, !tbaa !5
  br label %22

22:                                               ; preds = %19, %11
  %23 = phi i32 [ %21, %19 ], [ %12, %11 ]
  %24 = add nsw i32 %23, 71
  %25 = srem i32 %24, 7
  %26 = icmp eq i32 %25, 5
  br i1 %26, label %27, label %30

27:                                               ; preds = %22
  %28 = call i32 (i8*, ...) @printf(i8* nonnull dereferenceable(1) getelementptr inbounds ([4 x i8], [4 x i8]* @.str.1, i64 0, i64 0), i32 3)
  %29 = load i32, i32* %1, align 4, !tbaa !5
  br label %30

30:                                               ; preds = %27, %22
  %31 = phi i32 [ %29, %27 ], [ %23, %22 ]
  %32 = add nsw i32 %31, 102
  %33 = srem i32 %32, 7
  %34 = icmp eq i32 %33, 5
  br i1 %34, label %35, label %38

35:                                               ; preds = %30
  %36 = call i32 (i8*, ...) @printf(i8* nonnull dereferenceable(1) getelementptr inbounds ([4 x i8], [4 x i8]* @.str.1, i64 0, i64 0), i32 4)
  %37 = load i32, i32* %1, align 4, !tbaa !5
  br label %38

38:                                               ; preds = %35, %30
  %39 = phi i32 [ %37, %35 ], [ %31, %30 ]
  %40 = add nsw i32 %39, 132
  %41 = srem i32 %40, 7
  %42 = icmp eq i32 %41, 5
  br i1 %42, label %43, label %46

43:                                               ; preds = %38
  %44 = call i32 (i8*, ...) @printf(i8* nonnull dereferenceable(1) getelementptr inbounds ([4 x i8], [4 x i8]* @.str.1, i64 0, i64 0), i32 5)
  %45 = load i32, i32* %1, align 4, !tbaa !5
  br label %46

46:                                               ; preds = %43, %38
  %47 = phi i32 [ %45, %43 ], [ %39, %38 ]
  %48 = add nsw i32 %47, 163
  %49 = srem i32 %48, 7
  %50 = icmp eq i32 %49, 5
  br i1 %50, label %51, label %54

51:                                               ; preds = %46
  %52 = call i32 (i8*, ...) @printf(i8* nonnull dereferenceable(1) getelementptr inbounds ([4 x i8], [4 x i8]* @.str.1, i64 0, i64 0), i32 6)
  %53 = load i32, i32* %1, align 4, !tbaa !5
  br label %54

54:                                               ; preds = %51, %46
  %55 = phi i32 [ %53, %51 ], [ %47, %46 ]
  %56 = add nsw i32 %55, 193
  %57 = srem i32 %56, 7
  %58 = icmp eq i32 %57, 5
  br i1 %58, label %59, label %62

59:                                               ; preds = %54
  %60 = call i32 (i8*, ...) @printf(i8* nonnull dereferenceable(1) getelementptr inbounds ([4 x i8], [4 x i8]* @.str.1, i64 0, i64 0), i32 7)
  %61 = load i32, i32* %1, align 4, !tbaa !5
  br label %62

62:                                               ; preds = %59, %54
  %63 = phi i32 [ %61, %59 ], [ %55, %54 ]
  %64 = add nsw i32 %63, 224
  %65 = srem i32 %64, 7
  %66 = icmp eq i32 %65, 5
  br i1 %66, label %67, label %70

67:                                               ; preds = %62
  %68 = call i32 (i8*, ...) @printf(i8* nonnull dereferenceable(1) getelementptr inbounds ([4 x i8], [4 x i8]* @.str.1, i64 0, i64 0), i32 8)
  %69 = load i32, i32* %1, align 4, !tbaa !5
  br label %70

70:                                               ; preds = %67, %62
  %71 = phi i32 [ %69, %67 ], [ %63, %62 ]
  %72 = add nsw i32 %71, 255
  %73 = srem i32 %72, 7
  %74 = icmp eq i32 %73, 5
  br i1 %74, label %75, label %78

75:                                               ; preds = %70
  %76 = call i32 (i8*, ...) @printf(i8* nonnull dereferenceable(1) getelementptr inbounds ([4 x i8], [4 x i8]* @.str.1, i64 0, i64 0), i32 9)
  %77 = load i32, i32* %1, align 4, !tbaa !5
  br label %78

78:                                               ; preds = %75, %70
  %79 = phi i32 [ %77, %75 ], [ %71, %70 ]
  %80 = add nsw i32 %79, 285
  %81 = srem i32 %80, 7
  %82 = icmp eq i32 %81, 5
  br i1 %82, label %83, label %86

83:                                               ; preds = %78
  %84 = call i32 (i8*, ...) @printf(i8* nonnull dereferenceable(1) getelementptr inbounds ([4 x i8], [4 x i8]* @.str.1, i64 0, i64 0), i32 10)
  %85 = load i32, i32* %1, align 4, !tbaa !5
  br label %86

86:                                               ; preds = %83, %78
  %87 = phi i32 [ %85, %83 ], [ %79, %78 ]
  %88 = add nsw i32 %87, 316
  %89 = srem i32 %88, 7
  %90 = icmp eq i32 %89, 5
  br i1 %90, label %91, label %94

91:                                               ; preds = %86
  %92 = call i32 (i8*, ...) @printf(i8* nonnull dereferenceable(1) getelementptr inbounds ([4 x i8], [4 x i8]* @.str.1, i64 0, i64 0), i32 11)
  %93 = load i32, i32* %1, align 4, !tbaa !5
  br label %94

94:                                               ; preds = %91, %86
  %95 = phi i32 [ %93, %91 ], [ %87, %86 ]
  %96 = add nsw i32 %95, 346
  %97 = srem i32 %96, 7
  %98 = icmp eq i32 %97, 5
  br i1 %98, label %16, label %18
}

; Function Attrs: argmemonly mustprogress nofree nosync nounwind willreturn
declare void @llvm.lifetime.start.p0i8(i64 immarg, i8* nocapture) #1

; Function Attrs: nofree nounwind
declare noundef i32 @__isoc99_scanf(i8* nocapture noundef readonly, ...) local_unnamed_addr #2

; Function Attrs: nofree nounwind
declare noundef i32 @printf(i8* nocapture noundef readonly, ...) local_unnamed_addr #2

; Function Attrs: argmemonly mustprogress nofree nosync nounwind willreturn
declare void @llvm.lifetime.end.p0i8(i64 immarg, i8* nocapture) #1


!llvm.module.flags = !{!0, !1, !2, !3}
!llvm.ident = !{!4}

!0 = !{i32 1, !"wchar_size", i32 4}
!1 = !{i32 7, !"PIC Level", i32 2}
!2 = !{i32 7, !"PIE Level", i32 2}
!3 = !{i32 7, !"uwtable", i32 1}
!4 = !{!"clang version 13.0.0"}
!5 = !{!6, !6, i64 0}
!6 = !{!"int", !7, i64 0}
!7 = !{!"omnipotent char", !8, i64 0}
!8 = !{!"Simple C/C++ TBAA"}
